target datalayout = "e-m:e-p270:32:32-p271:32:32-p272:64:64-i64:64-i128:128-f80:128-n8:16:32:64-S128"
target triple = "x86_64-pc-linux-gnu"

%struct.store_engine = type { %union.pthread_mutex_t, ptr, ptr, ptr, ptr, ptr, ptr, ptr, i64, i32, i32, i32, i32, i32, i32, i32, i32, %union.pthread_mutex_t, %struct.extstore_stats, %struct.store_maint }
%union.pthread_mutex_t = type { %struct.__pthread_mutex_s }
%struct.__pthread_mutex_s = type { i32, i32, i32, i32, i32, i16, i16, %struct.__pthread_internal_list }
%struct.__pthread_internal_list = type { ptr, ptr }
%struct.extstore_stats = type { i64, i64, i64, i64, i64, i64, i64, i64, i64, i64, i64, i64, i64, i64, i64, i64, i64, ptr }
%struct.store_maint = type { %union.pthread_mutex_t }
%struct._store_page = type { %union.pthread_mutex_t, i64, i64, i64, i32, i32, i32, i32, i32, i32, i32, i16, i8, i8, i8, ptr, ptr }
%struct.extstore_page_data = type { i64, i64, i32, i32, i8 }

; Function Attrs: nounwind uwtable
define dso_local void @extstore_get_page_data(ptr noundef %0, ptr noundef %1) #0 {
  %3 = alloca ptr, align 8
  %4 = alloca ptr, align 8
  %5 = alloca ptr, align 8
  %6 = alloca ptr, align 8
  %7 = alloca i32, align 4
  %8 = alloca i32, align 4
  %9 = alloca ptr, align 8
  store ptr %0, ptr %3, align 8, !tbaa !4
  store ptr %1, ptr %4, align 8, !tbaa !8
  call void @llvm.lifetime.start.p0(i64 8, ptr %5) #8
  %10 = load ptr, ptr %3, align 8, !tbaa !4
  store ptr %10, ptr %5, align 8, !tbaa !10
  %11 = load ptr, ptr %5, align 8, !tbaa !10
  %12 = getelementptr inbounds nuw %struct.store_engine, ptr %11, i32 0, i32 19
  %13 = getelementptr inbounds nuw %struct.store_maint, ptr %12, i32 0, i32 0
  %14 = call i32 @pthread_mutex_lock(ptr noundef %13) #8
  call void @llvm.lifetime.start.p0(i64 8, ptr %6) #8
  %15 = load ptr, ptr %4, align 8, !tbaa !8
  %16 = getelementptr inbounds nuw %struct.extstore_stats, ptr %15, i32 0, i32 17
  %17 = load ptr, ptr %16, align 8, !tbaa !37
  store ptr %17, ptr %6, align 8, !tbaa !38
  call void @llvm.lifetime.start.p0(i64 4, ptr %7) #8
  store i32 0, ptr %7, align 4, !tbaa !27
  br label %18

18:                                               ; preds = %138, %2
  %19 = load i32, ptr %7, align 4, !tbaa !27
  %20 = load ptr, ptr %5, align 8, !tbaa !10
  %21 = getelementptr inbounds nuw %struct.store_engine, ptr %20, i32 0, i32 12
  %22 = load i32, ptr %21, align 4, !tbaa !24
  %23 = icmp ult i32 %19, %22
  br i1 %23, label %25, label %24

24:                                               ; preds = %18
  store i32 2, ptr %8, align 4
  call void @llvm.lifetime.end.p0(i64 4, ptr %7) #8
  br label %141

25:                                               ; preds = %18
  call void @llvm.lifetime.start.p0(i64 8, ptr %9) #8
  %26 = load ptr, ptr %5, align 8, !tbaa !10
  %27 = getelementptr inbounds nuw %struct.store_engine, ptr %26, i32 0, i32 1
  %28 = load ptr, ptr %27, align 8, !tbaa !39
  %29 = load i32, ptr %7, align 4, !tbaa !27
  %30 = sext i32 %29 to i64
  %31 = getelementptr inbounds %struct._store_page, ptr %28, i64 %30
  store ptr %31, ptr %9, align 8, !tbaa !40
  %32 = load ptr, ptr %9, align 8, !tbaa !40
  %33 = getelementptr inbounds nuw %struct._store_page, ptr %32, i32 0, i32 0
  %34 = call i32 @pthread_mutex_lock(ptr noundef %33) #8
  %35 = load ptr, ptr %9, align 8, !tbaa !40
  %36 = getelementptr inbounds nuw %struct._store_page, ptr %35, i32 0, i32 9
  %37 = load i32, ptr %36, align 4, !tbaa !41
  %38 = load ptr, ptr %6, align 8, !tbaa !38
  %39 = load ptr, ptr %9, align 8, !tbaa !40
  %40 = getelementptr inbounds nuw %struct._store_page, ptr %39, i32 0, i32 11
  %41 = load i16, ptr %40, align 4, !tbaa !45
  %42 = zext i16 %41 to i64
  %43 = getelementptr inbounds nuw %struct.extstore_page_data, ptr %38, i64 %42
  %44 = getelementptr inbounds nuw %struct.extstore_page_data, ptr %43, i32 0, i32 3
  store i32 %37, ptr %44, align 4, !tbaa !46
  %45 = load ptr, ptr %9, align 8, !tbaa !40
  %46 = getelementptr inbounds nuw %struct._store_page, ptr %45, i32 0, i32 4
  %47 = load i32, ptr %46, align 8, !tbaa !48
  %48 = zext i32 %47 to i64
  %49 = load ptr, ptr %6, align 8, !tbaa !38
  %50 = load ptr, ptr %9, align 8, !tbaa !40
  %51 = getelementptr inbounds nuw %struct._store_page, ptr %50, i32 0, i32 11
  %52 = load i16, ptr %51, align 4, !tbaa !45
  %53 = zext i16 %52 to i64
  %54 = getelementptr inbounds nuw %struct.extstore_page_data, ptr %49, i64 %53
  %55 = getelementptr inbounds nuw %struct.extstore_page_data, ptr %54, i32 0, i32 0
  store i64 %48, ptr %55, align 8, !tbaa !49
  %56 = load ptr, ptr %9, align 8, !tbaa !40
  %57 = getelementptr inbounds nuw %struct._store_page, ptr %56, i32 0, i32 2
  %58 = load i64, ptr %57, align 8, !tbaa !50
  %59 = load ptr, ptr %6, align 8, !tbaa !38
  %60 = load ptr, ptr %9, align 8, !tbaa !40
  %61 = getelementptr inbounds nuw %struct._store_page, ptr %60, i32 0, i32 11
  %62 = load i16, ptr %61, align 4, !tbaa !45
  %63 = zext i16 %62 to i64
  %64 = getelementptr inbounds nuw %struct.extstore_page_data, ptr %59, i64 %63
  %65 = getelementptr inbounds nuw %struct.extstore_page_data, ptr %64, i32 0, i32 1
  store i64 %58, ptr %65, align 8, !tbaa !51
  %66 = load ptr, ptr %9, align 8, !tbaa !40
  %67 = getelementptr inbounds nuw %struct._store_page, ptr %66, i32 0, i32 12
  %68 = load i8, ptr %67, align 2, !tbaa !52, !range !53, !noundef !54
  %69 = trunc i8 %68 to i1
  br i1 %69, label %70, label %78

70:                                               ; preds = %25
  %71 = load ptr, ptr %6, align 8, !tbaa !38
  %72 = load ptr, ptr %9, align 8, !tbaa !40
  %73 = getelementptr inbounds nuw %struct._store_page, ptr %72, i32 0, i32 11
  %74 = load i16, ptr %73, align 4, !tbaa !45
  %75 = zext i16 %74 to i64
  %76 = getelementptr inbounds nuw %struct.extstore_page_data, ptr %71, i64 %75
  %77 = getelementptr inbounds nuw %struct.extstore_page_data, ptr %76, i32 0, i32 4
  store i8 1, ptr %77, align 8, !tbaa !55
  br label %78

78:                                               ; preds = %70, %25
  %79 = load ptr, ptr %9, align 8, !tbaa !40
  %80 = getelementptr inbounds nuw %struct._store_page, ptr %79, i32 0, i32 12
  %81 = load i8, ptr %80, align 2, !tbaa !52, !range !53, !noundef !54
  %82 = trunc i8 %81 to i1
  br i1 %82, label %88, label %83

83:                                               ; preds = %78
  %84 = load ptr, ptr %9, align 8, !tbaa !40
  %85 = getelementptr inbounds nuw %struct._store_page, ptr %84, i32 0, i32 14
  %86 = load i8, ptr %85, align 8, !tbaa !56, !range !53, !noundef !54
  %87 = trunc i8 %86 to i1
  br i1 %87, label %88, label %92

88:                                               ; preds = %83, %78
  %89 = load ptr, ptr %9, align 8, !tbaa !40
  %90 = getelementptr inbounds nuw %struct._store_page, ptr %89, i32 0, i32 0
  %91 = call i32 @pthread_mutex_unlock(ptr noundef %90) #8
  store i32 4, ptr %8, align 4
  br label %135

92:                                               ; preds = %83
  %93 = load ptr, ptr %9, align 8, !tbaa !40
  %94 = getelementptr inbounds nuw %struct._store_page, ptr %93, i32 0, i32 1
  %95 = load i64, ptr %94, align 8, !tbaa !57
  %96 = icmp ugt i64 %95, 0
  br i1 %96, label %97, label %113

97:                                               ; preds = %92
  %98 = load ptr, ptr %9, align 8, !tbaa !40
  %99 = getelementptr inbounds nuw %struct._store_page, ptr %98, i32 0, i32 13
  %100 = load i8, ptr %99, align 1, !tbaa !58, !range !53, !noundef !54
  %101 = trunc i8 %100 to i1
  br i1 %101, label %113, label %102

102:                                              ; preds = %97
  %103 = load ptr, ptr %9, align 8, !tbaa !40
  %104 = getelementptr inbounds nuw %struct._store_page, ptr %103, i32 0, i32 8
  %105 = load i32, ptr %104, align 8, !tbaa !59
  %106 = load ptr, ptr %6, align 8, !tbaa !38
  %107 = load ptr, ptr %9, align 8, !tbaa !40
  %108 = getelementptr inbounds nuw %struct._store_page, ptr %107, i32 0, i32 11
  %109 = load i16, ptr %108, align 4, !tbaa !45
  %110 = zext i16 %109 to i64
  %111 = getelementptr inbounds nuw %struct.extstore_page_data, ptr %106, i64 %110
  %112 = getelementptr inbounds nuw %struct.extstore_page_data, ptr %111, i32 0, i32 2
  store i32 %105, ptr %112, align 8, !tbaa !60
  br label %113

113:                                              ; preds = %102, %97, %92
  %114 = load ptr, ptr %9, align 8, !tbaa !40
  %115 = getelementptr inbounds nuw %struct._store_page, ptr %114, i32 0, i32 1
  %116 = load i64, ptr %115, align 8, !tbaa !57
  %117 = icmp eq i64 %116, 0
  br i1 %117, label %123, label %118

118:                                              ; preds = %113
  %119 = load ptr, ptr %9, align 8, !tbaa !40
  %120 = getelementptr inbounds nuw %struct._store_page, ptr %119, i32 0, i32 13
  %121 = load i8, ptr %120, align 1, !tbaa !58, !range !53, !noundef !54
  %122 = trunc i8 %121 to i1
  br i1 %122, label %123, label %131

123:                                              ; preds = %118, %113
  %124 = load ptr, ptr %9, align 8, !tbaa !40
  %125 = getelementptr inbounds nuw %struct._store_page, ptr %124, i32 0, i32 5
  %126 = load i32, ptr %125, align 4, !tbaa !61
  %127 = icmp eq i32 %126, 0
  br i1 %127, label %128, label %131

128:                                              ; preds = %123
  %129 = load ptr, ptr %5, align 8, !tbaa !10
  %130 = load ptr, ptr %9, align 8, !tbaa !40
  call void @_free_page(ptr noundef %129, ptr noundef %130)
  br label %131

131:                                              ; preds = %128, %123, %118
  %132 = load ptr, ptr %9, align 8, !tbaa !40
  %133 = getelementptr inbounds nuw %struct._store_page, ptr %132, i32 0, i32 0
  %134 = call i32 @pthread_mutex_unlock(ptr noundef %133) #8
  store i32 0, ptr %8, align 4
  br label %135

135:                                              ; preds = %131, %88
  call void @llvm.lifetime.end.p0(i64 8, ptr %9) #8
  %136 = load i32, ptr %8, align 4
  switch i32 %136, label %146 [
    i32 0, label %137
    i32 4, label %138
  ]

137:                                              ; preds = %135
  br label %138

138:                                              ; preds = %137, %135
  %139 = load i32, ptr %7, align 4, !tbaa !27
  %140 = add nsw i32 %139, 1
  store i32 %140, ptr %7, align 4, !tbaa !27
  br label %18, !llvm.loop !62

141:                                              ; preds = %24
  %142 = load ptr, ptr %5, align 8, !tbaa !10
  %143 = getelementptr inbounds nuw %struct.store_engine, ptr %142, i32 0, i32 19
  %144 = getelementptr inbounds nuw %struct.store_maint, ptr %143, i32 0, i32 0
  %145 = call i32 @pthread_mutex_unlock(ptr noundef %144) #8
  call void @llvm.lifetime.end.p0(i64 8, ptr %6) #8
  call void @llvm.lifetime.end.p0(i64 8, ptr %5) #8
  ret void

146:                                              ; preds = %135
  unreachable
}