; Function Attrs: nounwind uwtable
define dso_local void @extstore_get_page_data(ptr noundef %0, ptr noundef readonly captures(none) %1) local_unnamed_addr #0 {
  %3 = getelementptr inbounds nuw i8, ptr %0, i64 320
  %4 = tail call i32 @pthread_mutex_lock(ptr noundef nonnull %3) #13
  %5 = getelementptr inbounds nuw i8, ptr %1, i64 136
  %6 = load ptr, ptr %5, align 8, !tbaa !32
  %7 = getelementptr inbounds nuw i8, ptr %0, i64 116
  %8 = load i32, ptr %7, align 4, !tbaa !19
  %.not37 = icmp eq i32 %8, 0
  br i1 %.not37, label %._crit_edge, label %.lr.ph

.lr.ph:                                           ; preds = %2
  %9 = getelementptr inbounds nuw i8, ptr %0, i64 40
  br label %11

._crit_edge:                                      ; preds = %51, %2
  %10 = tail call i32 @pthread_mutex_unlock(ptr noundef nonnull %3) #13
  ret void

11:                                               ; preds = %.lr.ph, %51
  %indvars.iv = phi i64 [ 0, %.lr.ph ], [ %indvars.iv.next, %51 ]
  %12 = load ptr, ptr %9, align 8, !tbaa !33
  %13 = getelementptr inbounds nuw %struct._store_page, ptr %12, i64 %indvars.iv
  %14 = tail call i32 @pthread_mutex_lock(ptr noundef %13) #13
  %15 = getelementptr inbounds nuw i8, ptr %13, i64 84
  %16 = load i32, ptr %15, align 4, !tbaa !34
  %17 = getelementptr inbounds nuw i8, ptr %13, i64 92
  %18 = load i16, ptr %17, align 4, !tbaa !38
  %19 = zext i16 %18 to i64
  %20 = getelementptr inbounds nuw %struct.extstore_page_data, ptr %6, i64 %19, i32 3
  store i32 %16, ptr %20, align 4, !tbaa !39
  %21 = getelementptr inbounds nuw i8, ptr %13, i64 64
  %22 = load i32, ptr %21, align 8, !tbaa !41
  %23 = zext i32 %22 to i64
  %24 = getelementptr inbounds nuw %struct.extstore_page_data, ptr %6, i64 %19
  store i64 %23, ptr %24, align 8, !tbaa !42
  %25 = getelementptr inbounds nuw i8, ptr %13, i64 48
  %26 = load i64, ptr %25, align 8, !tbaa !43
  %27 = getelementptr inbounds nuw %struct.extstore_page_data, ptr %6, i64 %19, i32 1
  store i64 %26, ptr %27, align 8, !tbaa !44
  %28 = getelementptr inbounds nuw i8, ptr %13, i64 94
  %29 = load i8, ptr %28, align 2, !tbaa !45, !range !46, !noundef !47
  %30 = trunc nuw i8 %29 to i1
  br i1 %30, label %.thread, label %32

.thread:                                          ; preds = %11
  %31 = getelementptr inbounds nuw %struct.extstore_page_data, ptr %6, i64 %19, i32 4
  store i8 1, ptr %31, align 8, !tbaa !48
  br label %51

32:                                               ; preds = %11
  %33 = getelementptr inbounds nuw i8, ptr %13, i64 96
  %34 = load i8, ptr %33, align 8, !tbaa !49, !range !46, !noundef !47
  %35 = trunc nuw i8 %34 to i1
  br i1 %35, label %51, label %36

36:                                               ; preds = %32
  %37 = getelementptr inbounds nuw i8, ptr %13, i64 40
  %38 = load i64, ptr %37, align 8, !tbaa !50
  %.not = icmp eq i64 %38, 0
  br i1 %.not, label %.thread39, label %39

39:                                               ; preds = %36
  %40 = getelementptr inbounds nuw i8, ptr %13, i64 95
  %41 = load i8, ptr %40, align 1, !tbaa !51, !range !46, !noundef !47
  %42 = trunc nuw i8 %41 to i1
  br i1 %42, label %.thread39, label %43

43:                                               ; preds = %39
  %44 = getelementptr inbounds nuw i8, ptr %13, i64 80
  %45 = load i32, ptr %44, align 8, !tbaa !52
  %46 = getelementptr inbounds nuw %struct.extstore_page_data, ptr %6, i64 %19, i32 2
  store i32 %45, ptr %46, align 8, !tbaa !53
  br label %51

.thread39:                                        ; preds = %39, %36
  %47 = getelementptr inbounds nuw i8, ptr %13, i64 68
  %48 = load i32, ptr %47, align 4, !tbaa !54
  %49 = icmp eq i32 %48, 0
  br i1 %49, label %50, label %51

50:                                               ; preds = %.thread39
  tail call fastcc void @_free_page(ptr noundef nonnull %0, ptr noundef nonnull %13)
  br label %51

51:                                               ; preds = %.thread39, %50, %43, %32, %.thread
  %52 = tail call i32 @pthread_mutex_unlock(ptr noundef nonnull %13) #13
  %indvars.iv.next = add nuw nsw i64 %indvars.iv, 1
  %53 = load i32, ptr %7, align 4, !tbaa !19
  %54 = zext i32 %53 to i64
  %55 = icmp samesign ult i64 %indvars.iv.next, %54
  br i1 %55, label %11, label %._crit_edge, !llvm.loop !55
}